(dp0
S'reports'
p1
(dp2
S'ff86960cf29eab25cddecc92cbba43d4'
p3
(dp4
Vscan_id
p5
V723d78604879e5c4078f1a0eb97322b92dd24dafcdaaf882b8b44bb8fcf00360-1409265090
p6
sVsha1
p7
V28993eb3154c6cda29379791310239955d8c4f6e
p8
sVresource
p9
Vff86960cf29eab25cddecc92cbba43d4
p10
sVresponse_code
p11
I1
sVscan_date
p12
V2014-08-28 22:31:30
p13
sVpermalink
p14
Vhttps://www.virustotal.com/file/723d78604879e5c4078f1a0eb97322b92dd24dafcdaaf882b8b44bb8fcf00360/analysis/1409265090/
p15
sVverbose_msg
p16
VScan finished, information embedded
p17
sVsha256
p18
V723d78604879e5c4078f1a0eb97322b92dd24dafcdaaf882b8b44bb8fcf00360
p19
sVpositives
p20
I0
sVtotal
p21
I55
sVmd5
p22
Vff86960cf29eab25cddecc92cbba43d4
p23
sVscans
p24
(dp25
VBkav
p26
(dp27
Vdetected
p28
I00
sVversion
p29
V1.3.0.4959
p30
sVresult
p31
NsVupdate
p32
V20140828
p33
ssVMicroWorld-eScan
p34
(dp35
g28
I00
sg29
V12.0.250.0
p36
sg31
Nsg32
V20140828
p37
ssVnProtect
p38
(dp39
g28
I00
sg29
V2014-08-28.01
p40
sg31
Nsg32
V20140828
p41
ssVCMC
p42
(dp43
g28
I00
sg29
V1.1.0.977
p44
sg31
Nsg32
V20140828
p45
ssVCAT-QuickHeal
p46
(dp47
g28
I00
sg29
V14.00
p48
sg31
Nsg32
V20140828
p49
ssVMcAfee
p50
(dp51
g28
I00
sg29
V6.0.4.564
p52
sg31
Nsg32
V20140828
p53
ssVMalwarebytes
p54
(dp55
g28
I00
sg29
V1.75.0.1
p56
sg31
Nsg32
V20140828
p57
ssVVIPRE
p58
(dp59
g28
I00
sg29
V32632
p60
sg31
Nsg32
V20140828
p61
ssVSUPERAntiSpyware
p62
(dp63
g28
I00
sg29
V5.6.0.1032
p64
sg31
Nsg32
V20140828
p65
ssVK7AntiVirus
p66
(dp67
g28
I00
sg29
V9.183.13198
p68
sg31
Nsg32
V20140828
p69
ssVK7GW
p70
(dp71
g28
I00
sg29
V9.183.13198
p72
sg31
Nsg32
V20140828
p73
ssVTheHacker
p74
(dp75
g28
I00
sg29
V6.8.0.5.478
p76
sg31
Nsg32
V20140827
p77
ssVNANO-Antivirus
p78
(dp79
g28
I00
sg29
V0.28.2.61861
p80
sg31
Nsg32
V20140828
p81
ssVF-Prot
p82
(dp83
g28
I00
sg29
V4.7.1.166
p84
sg31
Nsg32
V20140828
p85
ssVSymantec
p86
(dp87
g28
I00
sg29
V20141.1.0.330
p88
sg31
Nsg32
V20140828
p89
ssVNorman
p90
(dp91
g28
I00
sg29
V7.04.04
p92
sg31
Nsg32
V20140828
p93
ssVTotalDefense
p94
(dp95
g28
I00
sg29
V37.0.11148
p96
sg31
Nsg32
V20140828
p97
ssVTrendMicro-HouseCall
p98
(dp99
g28
I00
sg29
V9.700.0.1001
p100
sg31
Nsg32
V20140828
p101
ssVAvast
p102
(dp103
g28
I00
sg29
V8.0.1489.320
p104
sg31
Nsg32
V20140828
p105
ssVClamAV
p106
(dp107
g28
I00
sg29
V0.98.4.0
p108
sg31
Nsg32
V20140828
p109
ssVKaspersky
p110
(dp111
g28
I00
sg29
V12.0.0.1225
p112
sg31
Nsg32
V20140828
p113
ssVBitDefender
p114
(dp115
g28
I00
sg29
V7.2
p116
sg31
Nsg32
V20140828
p117
ssVAgnitum
p118
(dp119
g28
I00
sg29
V5.5.1.3
p120
sg31
Nsg32
V20140828
p121
ssVViRobot
p122
(dp123
g28
I00
sg29
V2011.4.7.4223
p124
sg31
Nsg32
V20140828
p125
ssVTencent
p126
(dp127
g28
I00
sg29
V1.0.0.1
p128
sg31
Nsg32
V20140828
p129
ssVAd-Aware
p130
(dp131
g28
I00
sg29
V12.0.163.0
p132
sg31
Nsg32
V20140828
p133
ssVSophos
p134
(dp135
g28
I00
sg29
V4.98.0
p136
sg31
Nsg32
V20140828
p137
ssVComodo
p138
(dp139
g28
I00
sg29
V19347
p140
sg31
Nsg32
V20140828
p141
ssVF-Secure
p142
(dp143
g28
I00
sg29
V11.0.19100.45
p144
sg31
Nsg32
V20140828
p145
ssVDrWeb
p146
(dp147
g28
I00
sg29
V7.0.10.8210
p148
sg31
Nsg32
V20140828
p149
ssVZillya
p150
(dp151
g28
I00
sg29
V2.0.0.1905
p152
sg31
Nsg32
V20140828
p153
ssVAntiVir
p154
(dp155
g28
I00
sg29
V7.11.169.186
p156
sg31
Nsg32
V20140828
p157
ssVTrendMicro
p158
(dp159
g28
I00
sg29
V9.740.0.1012
p160
sg31
Nsg32
V20140828
p161
ssVMcAfee-GW-Edition
p162
(dp163
g28
I00
sg29
V2013.2
p164
sg31
Nsg32
V20140828
p165
ssVEmsisoft
p166
(dp167
g28
I00
sg29
V3.0.0.600
p168
sg31
Nsg32
V20140828
p169
ssVCyren
p170
(dp171
g28
I00
sg29
V5.4.1.7
p172
sg31
Nsg32
V20140828
p173
ssVJiangmin
p174
(dp175
g28
I00
sg29
V16.0.100
p176
sg31
Nsg32
V20140828
p177
ssVAntiy-AVL
p178
(dp179
g28
I00
sg29
V1.0.0.1
p180
sg31
Nsg32
V20140828
p181
ssVKingsoft
p182
(dp183
g28
I00
sg29
V2013.4.9.267
p184
sg31
Nsg32
V20140828
p185
ssVMicrosoft
p186
(dp187
g28
I00
sg29
V1.10904
p188
sg31
Nsg32
V20140828
p189
ssVAegisLab
p190
(dp191
g28
I00
sg29
V1.5
p192
sg31
Nsg32
V20140828
p193
ssVAhnLab-V3
p194
(dp195
g28
I00
sg29
V2014.08.29.00
p196
sg31
Nsg32
V20140828
p197
ssVGData
p198
(dp199
g28
I00
sg29
V24
p200
sg31
Nsg32
V20140828
p201
ssVByteHero
p202
(dp203
g28
I00
sg29
V1.0.0.1
p204
sg31
Nsg32
V20140828
p205
ssVVBA32
p206
(dp207
g28
I00
sg29
V3.12.26.3
p208
sg31
Nsg32
V20140828
p209
ssVAVware
p210
(dp211
g28
I00
sg29
V1.5.0.16
p212
sg31
Nsg32
V20140828
p213
ssVBaidu-International
p214
(dp215
g28
I00
sg29
V3.5.1.41473
p216
sg31
Nsg32
V20140828
p217
ssVZoner
p218
(dp219
g28
I00
sg29
V1.0
p220
sg31
Nsg32
V20140826
p221
ssVESET-NOD32
p222
(dp223
g28
I00
sg29
V10331
p224
sg31
Nsg32
V20140828
p225
ssVRising
p226
(dp227
g28
I00
sg29
V25.0.0.11
p228
sg31
Nsg32
V20140828
p229
ssVIkarus
p230
(dp231
g28
I00
sg29
VT3.1.7.5.0
p232
sg31
Nsg32
V20140828
p233
ssVFortinet
p234
(dp235
g28
I00
sg29
V5.1.152.0
p236
sg31
Nsg32
V20140828
p237
ssVAVG
p238
(dp239
g28
I00
sg29
V14.0.0.4015
p240
sg31
Nsg32
V20140828
p241
ssVPanda
p242
(dp243
g28
I00
sg29
V10.0.3.5
p244
sg31
Nsg32
V20140828
p245
ssVQihoo-360
p246
(dp247
g28
I00
sg29
V1.0.0.1015
p248
sg31
Nsg32
V20140828
p249
ssssS'b59b3dcf4b8ed522a2108d5d30c8a292'
p250
(dp251
Vscan_id
p252
V2c626c6b917a14bfd0a735e80c7ff2500ee0ba6caa5b5aaffbf675743609ef1f-1425093710
p253
sVsha1
p254
Vf128262b23f5868d5ee71844e62c3a10f5f62647
p255
sVresource
p256
Vb59b3dcf4b8ed522a2108d5d30c8a292
p257
sVresponse_code
p258
I1
sVscan_date
p259
V2015-02-28 03:21:50
p260
sVpermalink
p261
Vhttps://www.virustotal.com/file/2c626c6b917a14bfd0a735e80c7ff2500ee0ba6caa5b5aaffbf675743609ef1f/analysis/1425093710/
p262
sVverbose_msg
p263
VScan finished, information embedded
p264
sVsha256
p265
V2c626c6b917a14bfd0a735e80c7ff2500ee0ba6caa5b5aaffbf675743609ef1f
p266
sVpositives
p267
I5
sVtotal
p268
I57
sVmd5
p269
Vb59b3dcf4b8ed522a2108d5d30c8a292
p270
sVscans
p271
(dp272
VBkav
p273
(dp274
Vdetected
p275
I00
sVversion
p276
V1.3.0.6379
p277
sVresult
p278
NsVupdate
p279
V20150227
p280
ssVMicroWorld-eScan
p281
(dp282
g275
I00
sg276
V12.0.250.0
p283
sg278
Nsg279
V20150228
p284
ssVnProtect
p285
(dp286
g275
I00
sg276
V2015-02-27.01
p287
sg278
Nsg279
V20150227
p288
ssVCMC
p289
(dp290
g275
I01
sg276
V1.1.0.977
p291
sg278
VTrojan.Win32.Generic!O
p292
sg279
V20150227
p293
ssVCAT-QuickHeal
p294
(dp295
g275
I00
sg276
V14.00
p296
sg278
Nsg279
V20150227
p297
ssVMcAfee
p298
(dp299
g275
I00
sg276
V6.0.5.614
p300
sg278
Nsg279
V20150228
p301
ssVMalwarebytes
p302
(dp303
g275
I00
sg276
V1.75.0.1
p304
sg278
Nsg279
V20150228
p305
ssVVIPRE
p306
(dp307
g275
I00
sg276
V37980
p308
sg278
Nsg279
V20150228
p309
ssVAegisLab
p310
(dp311
g275
I00
sg276
V1.5
p312
sg278
Nsg279
V20150228
p313
ssVK7AntiVirus
p314
(dp315
g275
I01
sg276
V9.199.15113
p316
sg278
VTrojan ( 700000111 )
p317
sg279
V20150227
p318
ssVBitDefender
p319
(dp320
g275
I00
sg276
V7.2
p321
sg278
Nsg279
V20150228
p322
ssVK7GW
p323
(dp324
g275
I01
sg276
V9.199.15113
p325
sg278
VTrojan ( 700000111 )
p326
sg279
V20150228
p327
ssVTheHacker
p328
(dp329
g275
I01
sg276
V6.8.0.5.530
p330
sg278
VTrojan/Windef.ipz
p331
sg279
V20150227
p332
ssVAgnitum
p333
(dp334
g275
I00
sg276
V5.5.1.3
p335
sg278
Nsg279
V20150226
p336
ssVF-Prot
p337
(dp338
g275
I00
sg276
V4.7.1.166
p339
sg278
Nsg279
V20150228
p340
ssVSymantec
p341
(dp342
g275
I00
sg276
V20141.2.0.56
p343
sg278
Nsg279
V20150228
p344
ssVNorman
p345
(dp346
g275
I00
sg276
V7.04.04
p347
sg278
Nsg279
V20150227
p348
ssVTotalDefense
p349
(dp350
g275
I00
sg276
V37.0.11467
p351
sg278
Nsg279
V20150227
p352
ssVTrendMicro-HouseCall
p353
(dp354
g275
I00
sg276
V9.700.0.1001
p355
sg278
Nsg279
V20150228
p356
ssVAvast
p357
(dp358
g275
I00
sg276
V8.0.1489.320
p359
sg278
Nsg279
V20150228
p360
ssVClamAV
p361
(dp362
g275
I00
sg276
V0.98.5.0
p363
sg278
Nsg279
V20150227
p364
ssVKaspersky
p365
(dp366
g275
I00
sg276
V15.0.1.10
p367
sg278
Nsg279
V20150228
p368
ssVAlibaba
p369
(dp370
g275
I00
sg276
V1.0
p371
sg278
Nsg279
V20150228
p372
ssVNANO-Antivirus
p373
(dp374
g275
I00
sg276
V0.30.0.296
p375
sg278
Nsg279
V20150228
p376
ssVSUPERAntiSpyware
p377
(dp378
g275
I00
sg276
V5.6.0.1032
p379
sg278
Nsg279
V20150228
p380
ssVRising
p381
(dp382
g275
I00
sg276
V25.0.0.17
p383
sg278
Nsg279
V20150227
p384
ssVAd-Aware
p385
(dp386
g275
I00
sg276
V12.0.163.0
p387
sg278
Nsg279
V20150228
p388
ssVEmsisoft
p389
(dp390
g275
I00
sg276
V3.0.0.600
p391
sg278
Nsg279
V20150228
p392
ssVComodo
p393
(dp394
g275
I00
sg276
V21237
p395
sg278
Nsg279
V20150228
p396
ssVF-Secure
p397
(dp398
g275
I00
sg276
V11.0.19100.45
p399
sg278
Nsg279
V20150228
p400
ssVDrWeb
p401
(dp402
g275
I00
sg276
V7.0.11.1300
p403
sg278
Nsg279
V20150228
p404
ssVZillya
p405
(dp406
g275
I00
sg276
V2.0.0.2084
p407
sg278
Nsg279
V20150228
p408
ssVTrendMicro
p409
(dp410
g275
I00
sg276
V9.740.0.1012
p411
sg278
Nsg279
V20150228
p412
ssVMcAfee-GW-Edition
p413
(dp414
g275
I00
sg276
Vv2014.2
p415
sg278
Nsg279
V20150228
p416
ssVSophos
p417
(dp418
g275
I00
sg276
V4.98.0
p419
sg278
Nsg279
V20150228
p420
ssVCyren
p421
(dp422
g275
I00
sg276
V5.4.16.7
p423
sg278
Nsg279
V20150228
p424
ssVJiangmin
p425
(dp426
g275
I00
sg276
V16.0.100
p427
sg278
Nsg279
V20150227
p428
ssVAvira
p429
(dp430
g275
I00
sg276
V7.11.212.236
p431
sg278
Nsg279
V20150228
p432
ssVAntiy-AVL
p433
(dp434
g275
I00
sg276
V1.0.0.1
p435
sg278
Nsg279
V20150228
p436
ssVKingsoft
p437
(dp438
g275
I00
sg276
V2013.4.9.267
p439
sg278
Nsg279
V20150228
p440
ssVMicrosoft
p441
(dp442
g275
I00
sg276
V1.1.11400.0
p443
sg278
Nsg279
V20150228
p444
ssVViRobot
p445
(dp446
g275
I00
sg276
V2014.3.20.0
p447
sg278
Nsg279
V20150228
p448
ssVAhnLab-V3
p449
(dp450
g275
I00
sg276
V2015.02.28.00
p451
sg278
Nsg279
V20150227
p452
ssVGData
p453
(dp454
g275
I00
sg276
V25
p455
sg278
Nsg279
V20150228
p456
ssVByteHero
p457
(dp458
g275
I00
sg276
V1.0.0.1
p459
sg278
Nsg279
V20150228
p460
ssVALYac
p461
(dp462
g275
I00
sg276
V1.0.1.4
p463
sg278
Nsg279
V20150228
p464
ssVAVware
p465
(dp466
g275
I00
sg276
V1.5.0.21
p467
sg278
Nsg279
V20150228
p468
ssVVBA32
p469
(dp470
g275
I00
sg276
V3.12.26.3
p471
sg278
Nsg279
V20150227
p472
ssVPanda
p473
(dp474
g275
I00
sg276
V4.6.4.2
p475
sg278
Nsg279
V20150227
p476
ssVZoner
p477
(dp478
g275
I01
sg276
V1.0
p479
sg278
VTrojan.Generic
p480
sg279
V20150227
p481
ssVESET-NOD32
p482
(dp483
g275
I00
sg276
V11246
p484
sg278
Nsg279
V20150228
p485
ssVTencent
p486
(dp487
g275
I00
sg276
V1.0.0.1
p488
sg278
Nsg279
V20150228
p489
ssVIkarus
p490
(dp491
g275
I00
sg276
VT3.1.8.6.0
p492
sg278
Nsg279
V20150227
p493
ssVFortinet
p494
(dp495
g275
I00
sg276
V5.0.999.0
p496
sg278
Nsg279
V20150228
p497
ssVAVG
p498
(dp499
g275
I00
sg276
V15.0.0.4299
p500
sg278
Nsg279
V20150228
p501
ssVBaidu-International
p502
(dp503
g275
I00
sg276
V3.5.1.41473
p504
sg278
Nsg279
V20150227
p505
ssVQihoo-360
p506
(dp507
g275
I00
sg276
V1.0.0.1015
p508
sg278
Nsg279
V20150228
p509
ssssS'c9d3143d0e87c04b571bb77c624d4dfb'
p510
(dp511
Vscan_id
p512
V7c139b7c540f2cba6ad20fd529be897924d8c646c6f8f1bc82bebd9d413f8bbc-1258425385
p513
sVsha1
p514
V5b2a622e1faeb07d5cbf5af07167063ca7f9eca3
p515
sVresource
p516
Vc9d3143d0e87c04b571bb77c624d4dfb
p517
sVresponse_code
p518
I1
sVscan_date
p519
V2009-11-17 02:36:25
p520
sVpermalink
p521
Vhttps://www.virustotal.com/file/7c139b7c540f2cba6ad20fd529be897924d8c646c6f8f1bc82bebd9d413f8bbc/analysis/1258425385/
p522
sVverbose_msg
p523
VScan finished, information embedded
p524
sVsha256
p525
V7c139b7c540f2cba6ad20fd529be897924d8c646c6f8f1bc82bebd9d413f8bbc
p526
sVpositives
p527
I30
sVtotal
p528
I41
sVmd5
p529
Vc9d3143d0e87c04b571bb77c624d4dfb
p530
sVscans
p531
(dp532
VMcAfee+Artemis
p533
(dp534
Vdetected
p535
I01
sVversion
p536
V5804
p537
sVresult
p538
VW32/Autorun.worm!bf
p539
sVupdate
p540
V20091116
p541
ssVnProtect
p542
(dp543
g535
I00
sg536
V2009.1.8.0
p544
sg538
Nsg540
V20091116
p545
ssVCAT-QuickHeal
p546
(dp547
g535
I01
sg536
V10.00
p548
sg538
VWorm.AutoRun.aohu
p549
sg540
V20091116
p550
ssVMcAfee
p551
(dp552
g535
I01
sg536
V5804
p553
sg538
VW32/Autorun.worm!bf
p554
sg540
V20091116
p555
ssVTheHacker
p556
(dp557
g535
I01
sg536
V6.5.0.2.071
p558
sg538
VW32/AutoRun.aohu
p559
sg540
V20091116
p560
ssVK7AntiVirus
p561
(dp562
g535
I01
sg536
V7.10.897
p563
sg538
VWorm.Win32.AutoRun.aohu
p564
sg540
V20091116
p565
ssVVirusBuster
p566
(dp567
g535
I01
sg536
V4.6.5.0
p568
sg538
VWorm.Autorun.WDA
p569
sg540
V20091116
p570
ssVNOD32
p571
(dp572
g535
I01
sg536
V4613
p573
sg538
VWin32/AutoRun.Agent.PY
p574
sg540
V20091116
p575
ssVF-Prot
p576
(dp577
g535
I01
sg536
V4.5.1.85
p578
sg538
VW32/Worm.AMHO
p579
sg540
V20091116
p580
ssVSymantec
p581
(dp582
g535
I00
sg536
V1.4.4.12
p583
sg538
Nsg540
V20091117
p584
ssVNorman
p585
(dp586
g535
I01
sg536
V6.03.02
p587
sg538
VW32/AutoRun.RVT
p588
sg540
V20091116
p589
ssVAvast
p590
(dp591
g535
I01
sg536
V4.8.1351.0
p592
sg538
VWin32:Trojan-gen
p593
sg540
V20091116
p594
ssVeSafe
p595
(dp596
g535
I01
sg536
V7.0.17.0
p597
sg538
VWin32.TRCrypt.XPACK
p598
sg540
V20091116
p599
ssVClamAV
p600
(dp601
g535
I00
sg536
V0.94.1
p602
sg538
Nsg540
V20091116
p603
ssVKaspersky
p604
(dp605
g535
I01
sg536
V7.0.0.125
p606
sg538
VWorm.Win32.AutoRun.aohu
p607
sg540
V20091117
p608
ssVBitDefender
p609
(dp610
g535
I01
sg536
V7.2
p611
sg538
VTrojan.Generic.2126063
p612
sg540
V20091117
p613
ssVComodo
p614
(dp615
g535
I01
sg536
V2960
p616
sg538
VTrojWare.Win32.Trojan.Agent.Gen
p617
sg540
V20091116
p618
ssVF-Secure
p619
(dp620
g535
I01
sg536
V9.0.15370.0
p621
sg538
VTrojan.Generic.2126063
p622
sg540
V20091111
p623
ssVDrWeb
p624
(dp625
g535
I00
sg536
V5.0.0.12182
p626
sg538
Nsg540
V20091117
p627
ssVAntiVir
p628
(dp629
g535
I01
sg536
V7.9.1.65
p630
sg538
VTR/Crypt.XPACK.Gen
p631
sg540
V20091116
p632
ssVTrendMicro
p633
(dp634
g535
I01
sg536
V9.0.0.1003
p635
sg538
VWORM_AUTORUN.EYO
p636
sg540
V20091116
p637
ssVMcAfee-GW-Edition
p638
(dp639
g535
I01
sg536
V6.8.5
p640
sg538
VTrojan.Crypt.XPACK.Gen
p641
sg540
V20091117
p642
ssVSophos
p643
(dp644
g535
I01
sg536
V4.47.0
p645
sg538
VMal/Generic-A
p646
sg540
V20091117
p647
ssVeTrust-Vet
p648
(dp649
g535
I00
sg536
V35.1.7123
p650
sg538
Nsg540
V20091116
p651
ssVAuthentium
p652
(dp653
g535
I01
sg536
V5.2.0.5
p654
sg538
VW32/Worm.AMHO
p655
sg540
V20091117
p656
ssVJiangmin
p657
(dp658
g535
I01
sg536
V11.0.800
p659
sg538
VTrojan/PSW.OnLineGames.axaf
p660
sg540
V20091116
p661
ssVAntiy-AVL
p662
(dp663
g535
I00
sg536
V2.0.3.7
p664
sg538
Nsg540
V20091116
p665
ssVa-squared
p666
(dp667
g535
I01
sg536
V4.5.0.41
p668
sg538
VWorm.Win32.AutoRun!IK
p669
sg540
V20091116
p670
ssVMicrosoft
p671
(dp672
g535
I01
sg536
V1.5202
p673
sg538
VWorm:Win32/Autorun.CY
p674
sg540
V20091116
p675
ssVViRobot
p676
(dp677
g535
I00
sg536
V2009.11.16.2039
p678
sg538
Nsg540
V20091116
p679
ssVPrevx
p680
(dp681
g535
I00
sg536
V3.0
p682
sg538
Nsg540
V20091117
p683
ssVGData
p684
(dp685
g535
I01
sg536
V19
p686
sg538
VTrojan.Generic.2126063
p687
sg540
V20091117
p688
ssVAhnLab-V3
p689
(dp690
g535
I00
sg536
V5.0.0.2
p691
sg538
Nsg540
V20091116
p692
ssVVBA32
p693
(dp694
g535
I01
sg536
V3.12.10.11
p695
sg538
VWorm.Win32.AutoRun.aohu
p696
sg540
V20091115
p697
ssVSunbelt
p698
(dp699
g535
I00
sg536
V3.2.1858.2
p700
sg538
Nsg540
V20091112
p701
ssVPCTools
p702
(dp703
g535
I00
sg536
V7.0.3.5
p704
sg538
Nsg540
V20091116
p705
ssVRising
p706
(dp707
g535
I01
sg536
V22.22.00.08
p708
sg538
VPacker.Win32.Agent.bk
p709
sg540
V20091116
p710
ssVIkarus
p711
(dp712
g535
I01
sg536
VT3.1.1.74.0
p713
sg538
VWorm.Win32.AutoRun
p714
sg540
V20091117
p715
ssVFortinet
p716
(dp717
g535
I01
sg536
V3.120.0.0
p718
sg538
VW32/AutoRun.AOHU!worm
p719
sg540
V20091116
p720
ssVAVG
p721
(dp722
g535
I01
sg536
V8.5.0.425
p723
sg538
VGeneric10.AOCR
p724
sg540
V20091116
p725
ssVPanda
p726
(dp727
g535
I01
sg536
V10.0.2.2
p728
sg538
VW32/AutoRun.DJ.worm
p729
sg540
V20091116
p730
sssss.